target datalayout = "e-m:e-p270:32:32-p271:32:32-p272:64:64-i64:64-i128:128-f80:128-n8:16:32:64-S128"
target triple = "x86_64-pc-linux-gnu"

%"class.llvm::SmallVectorBase" = type { ptr, i32, i32 }
%"struct.llvm::Align" = type { i8 }
%"class.llvm::MachineInstr" = type <{ %"class.llvm::ilist_node_with_parent", ptr, ptr, ptr, [3 x i8], %"class.llvm::ArrayRecycler<llvm::MachineOperand>::Capacity", i32, %"class.llvm::PointerSumType", %"class.llvm::DebugLoc", i32, i16, [2 x i8] }>
%"class.llvm::ilist_node_with_parent" = type { %"class.llvm::ilist_node" }
%"class.llvm::ilist_node" = type { %"class.llvm::ilist_node_impl" }
%"class.llvm::ilist_node_impl" = type { %"class.llvm::ilist_node_base" }
%"class.llvm::ilist_node_base" = type { %"class.llvm::ilist_detail::node_base_prevnext" }
%"class.llvm::ilist_detail::node_base_prevnext" = type { %"class.llvm::PointerIntPair", ptr }
%"class.llvm::PointerIntPair" = type { %"struct.llvm::detail::PunnedPointer" }
%"struct.llvm::detail::PunnedPointer" = type { [8 x i8] }
%"class.llvm::ArrayRecycler<llvm::MachineOperand>::Capacity" = type { i8 }
%"class.llvm::PointerSumType" = type { %"union.llvm::PointerSumType<llvm::MachineInstr::ExtraInfoInlineKinds, llvm::PointerSumTypeMember<0, llvm::MachineMemOperand *>, llvm::PointerSumTypeMember<1, llvm::MCSymbol *>, llvm::PointerSumTypeMember<2, llvm::MCSymbol *>, llvm::PointerSumTypeMember<3, llvm::MachineInstr::ExtraInfo *>>::StorageT" }
%"union.llvm::PointerSumType<llvm::MachineInstr::ExtraInfoInlineKinds, llvm::PointerSumTypeMember<0, llvm::MachineMemOperand *>, llvm::PointerSumTypeMember<1, llvm::MCSymbol *>, llvm::PointerSumTypeMember<2, llvm::MCSymbol *>, llvm::PointerSumTypeMember<3, llvm::MachineInstr::ExtraInfo *>>::StorageT" = type { i64 }
%"class.llvm::DebugLoc" = type { %"class.llvm::TypedTrackingMDRef" }
%"class.llvm::TypedTrackingMDRef" = type { %"class.llvm::TrackingMDRef" }
%"class.llvm::TrackingMDRef" = type { ptr }
%"class.llvm::ilist_iterator.97" = type { ptr }
%"class.llvm::MachineBasicBlock" = type { %"class.llvm::ilist_node_with_parent.99", ptr, i32, i32, ptr, %"class.llvm::iplist", %"class.llvm::SmallVector.105", %"class.llvm::SmallVector.110", %"class.std::vector.112", %"class.std::optional", %"class.std::vector.117", %"struct.llvm::Align", i32, i8, i8, ptr, i8, i8, i8, i8, i8, [3 x i8], %"class.std::optional.122", %"struct.llvm::MBBSectionID", i8, i8, i8, ptr, ptr, ptr }
%"class.llvm::ilist_node_with_parent.99" = type { %"class.llvm::ilist_node.100" }
%"class.llvm::ilist_node.100" = type { %"class.llvm::ilist_node_impl.101" }
%"class.llvm::ilist_node_impl.101" = type { %"class.llvm::ilist_node_base.102" }
%"class.llvm::ilist_node_base.102" = type { %"class.llvm::ilist_detail::node_base_prevnext.103" }
%"class.llvm::ilist_detail::node_base_prevnext.103" = type { ptr, ptr }
%"class.llvm::iplist" = type { %"class.llvm::iplist_impl" }
%"class.llvm::iplist_impl" = type { %"struct.llvm::ilist_traits", %"class.llvm::simple_ilist" }
%"struct.llvm::ilist_traits" = type { ptr }
%"class.llvm::simple_ilist" = type { %"class.llvm::ilist_sentinel" }
%"class.llvm::ilist_sentinel" = type { %"class.llvm::ilist_node_impl" }
%"class.llvm::SmallVector.105" = type { %"class.llvm::SmallVectorImpl.106", %"struct.llvm::SmallVectorStorage.109" }
%"class.llvm::SmallVectorImpl.106" = type { %"class.llvm::SmallVectorTemplateBase.107" }
%"class.llvm::SmallVectorTemplateBase.107" = type { %"class.llvm::SmallVectorTemplateCommon.108" }
%"class.llvm::SmallVectorTemplateCommon.108" = type { %"class.llvm::SmallVectorBase" }
%"struct.llvm::SmallVectorStorage.109" = type { [32 x i8] }
%"class.llvm::SmallVector.110" = type { %"class.llvm::SmallVectorImpl.106", %"struct.llvm::SmallVectorStorage.111" }
%"struct.llvm::SmallVectorStorage.111" = type { [16 x i8] }
%"class.std::vector.112" = type { %"struct.std::_Vector_base.113" }
%"struct.std::_Vector_base.113" = type { %"struct.std::_Vector_base<llvm::BranchProbability, std::allocator<llvm::BranchProbability>>::_Vector_impl" }
%"struct.std::_Vector_base<llvm::BranchProbability, std::allocator<llvm::BranchProbability>>::_Vector_impl" = type { %"struct.std::_Vector_base<llvm::BranchProbability, std::allocator<llvm::BranchProbability>>::_Vector_impl_data" }
%"struct.std::_Vector_base<llvm::BranchProbability, std::allocator<llvm::BranchProbability>>::_Vector_impl_data" = type { ptr, ptr, ptr }
%"class.std::optional" = type { %"struct.std::_Optional_base" }
%"struct.std::_Optional_base" = type { %"struct.std::_Optional_payload" }
%"struct.std::_Optional_payload" = type { %"struct.std::_Optional_payload_base.base", [7 x i8] }
%"struct.std::_Optional_payload_base.base" = type <{ %"union.std::_Optional_payload_base<unsigned long>::_Storage", i8 }>
%"union.std::_Optional_payload_base<unsigned long>::_Storage" = type { i64 }
%"class.std::vector.117" = type { %"struct.std::_Vector_base.118" }
%"struct.std::_Vector_base.118" = type { %"struct.std::_Vector_base<llvm::MachineBasicBlock::RegisterMaskPair, std::allocator<llvm::MachineBasicBlock::RegisterMaskPair>>::_Vector_impl" }
%"struct.std::_Vector_base<llvm::MachineBasicBlock::RegisterMaskPair, std::allocator<llvm::MachineBasicBlock::RegisterMaskPair>>::_Vector_impl" = type { %"struct.std::_Vector_base<llvm::MachineBasicBlock::RegisterMaskPair, std::allocator<llvm::MachineBasicBlock::RegisterMaskPair>>::_Vector_impl_data" }
%"struct.std::_Vector_base<llvm::MachineBasicBlock::RegisterMaskPair, std::allocator<llvm::MachineBasicBlock::RegisterMaskPair>>::_Vector_impl_data" = type { ptr, ptr, ptr }
%"class.std::optional.122" = type { %"struct.std::_Optional_base.123" }
%"struct.std::_Optional_base.123" = type { %"struct.std::_Optional_payload.125" }
%"struct.std::_Optional_payload.125" = type { %"struct.std::_Optional_payload_base.base.127", [3 x i8] }
%"struct.std::_Optional_payload_base.base.127" = type <{ %"union.std::_Optional_payload_base<llvm::UniqueBBID>::_Storage", i8 }>
%"union.std::_Optional_payload_base<llvm::UniqueBBID>::_Storage" = type { %"struct.llvm::UniqueBBID" }
%"struct.llvm::UniqueBBID" = type { i32, i32 }
%"struct.llvm::MBBSectionID" = type { i32, i32 }

; Function Attrs: mustprogress nounwind uwtable
define linkonce_odr hidden noundef ptr @_ZN4llvm12ilist_detail10NodeAccess11getValuePtrINS0_12node_optionsINS_12MachineInstrELb1ELb1EvLb0EvEEEENT_13const_pointerEPKNS_15ilist_node_implIS6_EE(ptr noundef %0) #0 comdat align 2 {
  %2 = alloca ptr, align 8
  store ptr %0, ptr %2, align 8
  %3 = load ptr, ptr %2, align 8
  ret ptr %3
}

; Function Attrs: mustprogress nounwind uwtable
define linkonce_odr hidden noundef ptr @_ZNK4llvm12ilist_detail18node_base_prevnextINS_15ilist_node_baseILb1EvEELb1EE7getNextEv(ptr noundef nonnull align 8 dereferenceable(16) %0) #0 comdat align 2 {
  %2 = alloca ptr, align 8
  store ptr %0, ptr %2, align 8
  %3 = load ptr, ptr %2, align 8
  %4 = getelementptr inbounds nuw %"class.llvm::ilist_detail::node_base_prevnext", ptr %3, i32 0, i32 1
  %5 = load ptr, ptr %4, align 8
  ret ptr %5
}

; Function Attrs: mustprogress nounwind uwtable
define linkonce_odr hidden noundef ptr @_ZN4llvm12ilist_detail18SpecificNodeAccessINS0_12node_optionsINS_12MachineInstrELb1ELb1EvLb0EvEEE11getValuePtrEPKNS_15ilist_node_implIS4_EE(ptr noundef %0) #0 comdat align 2 {
  %2 = alloca ptr, align 8
  store ptr %0, ptr %2, align 8
  %3 = load ptr, ptr %2, align 8
  %4 = call noundef ptr @_ZN4llvm12ilist_detail10NodeAccess11getValuePtrINS0_12node_optionsINS_12MachineInstrELb1ELb1EvLb0EvEEEENT_13const_pointerEPKNS_15ilist_node_implIS6_EE(ptr noundef %3)
  ret ptr %4
}

; Function Attrs: mustprogress nounwind uwtable
define linkonce_odr hidden noundef zeroext i1 @_ZNK4llvm12MachineInstr7getFlagENS0_6MIFlagE(ptr noundef nonnull align 8 dereferenceable(70) %0, i32 noundef %1) #0 comdat align 2 {
  %3 = alloca ptr, align 8
  %4 = alloca i32, align 4
  store ptr %0, ptr %3, align 8
  store i32 %1, ptr %4, align 4
  %5 = load ptr, ptr %3, align 8
  %6 = getelementptr inbounds nuw %"class.llvm::MachineInstr", ptr %5, i32 0, i32 6
  %7 = load i32, ptr %6, align 4
  %8 = and i32 %7, 16777215
  %9 = load i32, ptr %4, align 4
  %10 = and i32 %8, %9
  %11 = icmp ne i32 %10, 0
  ret i1 %11
}

; Function Attrs: mustprogress nounwind uwtable
define linkonce_odr hidden noundef ptr @_ZNK4llvm15ilist_node_implINS_12ilist_detail12node_optionsINS_12MachineInstrELb1ELb1EvLb0EvEEE7getNextEv(ptr noundef nonnull align 8 dereferenceable(16) %0) #0 comdat align 2 {
  %2 = alloca ptr, align 8
  store ptr %0, ptr %2, align 8
  %3 = load ptr, ptr %2, align 8
  %4 = call noundef ptr @_ZNK4llvm12ilist_detail18node_base_prevnextINS_15ilist_node_baseILb1EvEELb1EE7getNextEv(ptr noundef nonnull align 8 dereferenceable(16) %3)
  ret ptr %4
}

; Function Attrs: mustprogress nounwind uwtable
define linkonce_odr hidden ptr @_ZNK4llvm12simple_ilistINS_12MachineInstrEJNS_23ilist_sentinel_trackingILb1EEEEE3endEv(ptr noundef nonnull align 8 dereferenceable(16) %0) #0 comdat align 2 {
  %2 = alloca %"class.llvm::ilist_iterator.97", align 8
  %3 = alloca ptr, align 8
  store ptr %0, ptr %3, align 8
  %4 = load ptr, ptr %3, align 8
  %5 = getelementptr inbounds nuw %"class.llvm::simple_ilist", ptr %4, i32 0, i32 0
  call void @_ZN4llvm14ilist_iteratorINS_12ilist_detail12node_optionsINS_12MachineInstrELb1ELb1EvLb0EvEELb0ELb1EEC2ERKNS_15ilist_node_implIS4_EE(ptr noundef nonnull align 8 dereferenceable(8) %2, ptr noundef nonnull align 8 dereferenceable(16) %5)
  %6 = getelementptr inbounds nuw %"class.llvm::ilist_iterator.97", ptr %2, i32 0, i32 0
  %7 = load ptr, ptr %6, align 8
  ret ptr %7
}

; Function Attrs: mustprogress nounwind uwtable
define linkonce_odr hidden void @_ZN4llvm14ilist_iteratorINS_12ilist_detail12node_optionsINS_12MachineInstrELb1ELb1EvLb0EvEELb0ELb1EEC2ERKNS_15ilist_node_implIS4_EE(ptr noundef nonnull align 8 dereferenceable(8) %0, ptr noundef nonnull align 8 dereferenceable(16) %1) unnamed_addr #0 comdat align 2 {
  %3 = alloca ptr, align 8
  %4 = alloca ptr, align 8
  store ptr %0, ptr %3, align 8
  store ptr %1, ptr %4, align 8
  %5 = load ptr, ptr %3, align 8
  %6 = getelementptr inbounds nuw %"class.llvm::ilist_iterator.97", ptr %5, i32 0, i32 0
  %7 = load ptr, ptr %4, align 8
  store ptr %7, ptr %6, align 8
  ret void
}

; Function Attrs: mustprogress nounwind uwtable
define linkonce_odr hidden noundef nonnull align 8 dereferenceable(70) ptr @_ZNK4llvm14ilist_iteratorINS_12ilist_detail12node_optionsINS_12MachineInstrELb1ELb1EvLb0EvEELb0ELb1EEdeEv(ptr noundef nonnull align 8 dereferenceable(8) %0) #0 comdat align 2 {
  %2 = alloca ptr, align 8
  store ptr %0, ptr %2, align 8
  %3 = load ptr, ptr %2, align 8
  %4 = getelementptr inbounds nuw %"class.llvm::ilist_iterator.97", ptr %3, i32 0, i32 0
  %5 = load ptr, ptr %4, align 8
  %6 = call noundef ptr @_ZN4llvm12ilist_detail18SpecificNodeAccessINS0_12node_optionsINS_12MachineInstrELb1ELb1EvLb0EvEEE11getValuePtrEPKNS_15ilist_node_implIS4_EE(ptr noundef %5)
  ret ptr %6
}

; Function Attrs: mustprogress nounwind uwtable
define linkonce_odr hidden noundef zeroext i1 @_ZNK4llvm12MachineInstr14isInsideBundleEv(ptr noundef nonnull align 8 dereferenceable(70) %0) #0 comdat align 2 {
  %2 = alloca ptr, align 8
  store ptr %0, ptr %2, align 8
  %3 = load ptr, ptr %2, align 8
  %4 = call noundef zeroext i1 @_ZNK4llvm12MachineInstr7getFlagENS0_6MIFlagE(ptr noundef nonnull align 8 dereferenceable(70) %3, i32 noundef 4)
  ret i1 %4
}

; Function Attrs: mustprogress nounwind uwtable
define linkonce_odr hidden noundef ptr @_ZNK4llvm14ilist_iteratorINS_12ilist_detail12node_optionsINS_12MachineInstrELb1ELb1EvLb0EvEELb0ELb1EEptEv(ptr noundef nonnull align 8 dereferenceable(8) %0) #0 comdat align 2 {
  %2 = alloca ptr, align 8
  store ptr %0, ptr %2, align 8
  %3 = load ptr, ptr %2, align 8
  %4 = call noundef nonnull align 8 dereferenceable(70) ptr @_ZNK4llvm14ilist_iteratorINS_12ilist_detail12node_optionsINS_12MachineInstrELb1ELb1EvLb0EvEELb0ELb1EEdeEv(ptr noundef nonnull align 8 dereferenceable(8) %3)
  ret ptr %4
}

; Function Attrs: mustprogress nounwind uwtable
define linkonce_odr hidden noundef zeroext i1 @_ZN4llvmneERKNS_14ilist_iteratorINS_12ilist_detail12node_optionsINS_12MachineInstrELb1ELb1EvLb0EvEELb0ELb1EEES7_(ptr noundef nonnull align 8 dereferenceable(8) %0, ptr noundef nonnull align 8 dereferenceable(8) %1) #0 comdat {
  %3 = alloca ptr, align 8
  %4 = alloca ptr, align 8
  store ptr %0, ptr %3, align 8
  store ptr %1, ptr %4, align 8
  %5 = load ptr, ptr %3, align 8
  %6 = getelementptr inbounds nuw %"class.llvm::ilist_iterator.97", ptr %5, i32 0, i32 0
  %7 = load ptr, ptr %6, align 8
  %8 = load ptr, ptr %4, align 8
  %9 = getelementptr inbounds nuw %"class.llvm::ilist_iterator.97", ptr %8, i32 0, i32 0
  %10 = load ptr, ptr %9, align 8
  %11 = icmp ne ptr %7, %10
  ret i1 %11
}

; Function Attrs: mustprogress nounwind uwtable
define linkonce_odr hidden noundef nonnull align 8 dereferenceable(8) ptr @_ZN4llvm14ilist_iteratorINS_12ilist_detail12node_optionsINS_12MachineInstrELb1ELb1EvLb0EvEELb0ELb1EEppEv(ptr noundef nonnull align 8 dereferenceable(8) %0) #0 comdat align 2 {
  %2 = alloca ptr, align 8
  store ptr %0, ptr %2, align 8
  %3 = load ptr, ptr %2, align 8
  %4 = getelementptr inbounds nuw %"class.llvm::ilist_iterator.97", ptr %3, i32 0, i32 0
  %5 = load ptr, ptr %4, align 8
  %6 = call noundef ptr @_ZNK4llvm15ilist_node_implINS_12ilist_detail12node_optionsINS_12MachineInstrELb1ELb1EvLb0EvEEE7getNextEv(ptr noundef nonnull align 8 dereferenceable(16) %5)
  %7 = getelementptr inbounds nuw %"class.llvm::ilist_iterator.97", ptr %3, i32 0, i32 0
  store ptr %6, ptr %7, align 8
  ret ptr %3
}

; Function Attrs: mustprogress nounwind uwtable
define linkonce_odr hidden ptr @_ZNK4llvm17MachineBasicBlock9instr_endEv(ptr noundef nonnull align 8 dereferenceable(288) %0) #0 comdat align 2 {
  %2 = alloca %"class.llvm::ilist_iterator.97", align 8
  %3 = alloca ptr, align 8
  store ptr %0, ptr %3, align 8
  %4 = load ptr, ptr %3, align 8
  %5 = getelementptr inbounds nuw %"class.llvm::MachineBasicBlock", ptr %4, i32 0, i32 5
  %6 = getelementptr inbounds i8, ptr %5, i64 8
  %7 = call ptr @_ZNK4llvm12simple_ilistINS_12MachineInstrEJNS_23ilist_sentinel_trackingILb1EEEEE3endEv(ptr noundef nonnull align 8 dereferenceable(16) %6)
  %8 = getelementptr inbounds nuw %"class.llvm::ilist_iterator.97", ptr %2, i32 0, i32 0
  store ptr %7, ptr %8, align 8
  %9 = getelementptr inbounds nuw %"class.llvm::ilist_iterator.97", ptr %2, i32 0, i32 0
  %10 = load ptr, ptr %9, align 8
  ret ptr %10
}

; Function Attrs: mustprogress nounwind uwtable
define linkonce_odr hidden noundef ptr @_ZNK4llvm12MachineInstr9getParentEv(ptr noundef nonnull align 8 dereferenceable(70) %0) #0 comdat align 2 {
  %2 = alloca ptr, align 8
  store ptr %0, ptr %2, align 8
  %3 = load ptr, ptr %2, align 8
  %4 = getelementptr inbounds nuw %"class.llvm::MachineInstr", ptr %3, i32 0, i32 2
  %5 = load ptr, ptr %4, align 8
  ret ptr %5
}

; Function Attrs: mustprogress nounwind uwtable
define linkonce_odr hidden ptr @_ZNK4llvm15ilist_node_implINS_12ilist_detail12node_optionsINS_12MachineInstrELb1ELb1EvLb0EvEEE11getIteratorEv(ptr noundef nonnull align 8 dereferenceable(16) %0) #0 comdat align 2 {
  %2 = alloca %"class.llvm::ilist_iterator.97", align 8
  %3 = alloca ptr, align 8
  store ptr %0, ptr %3, align 8
  %4 = load ptr, ptr %3, align 8
  call void @_ZN4llvm14ilist_iteratorINS_12ilist_detail12node_optionsINS_12MachineInstrELb1ELb1EvLb0EvEELb0ELb1EEC2ERKNS_15ilist_node_implIS4_EE(ptr noundef nonnull align 8 dereferenceable(8) %2, ptr noundef nonnull align 8 dereferenceable(16) %4)
  %5 = getelementptr inbounds nuw %"class.llvm::ilist_iterator.97", ptr %2, i32 0, i32 0
  %6 = load ptr, ptr %5, align 8
  ret ptr %6
}

; Function Attrs: mustprogress nounwind uwtable
define dso_local noundef i32 @_ZNK4llvm14RISCVInstrInfo19getInstBundleLengthERKNS_12MachineInstrE(ptr noundef nonnull align 8 dereferenceable(88) %0, ptr noundef nonnull align 8 dereferenceable(70) %1) #0 align 2 {
  %3 = alloca ptr, align 8
  %4 = alloca ptr, align 8
  %5 = alloca i32, align 4
  %6 = alloca %"class.llvm::ilist_iterator.97", align 8
  %7 = alloca %"class.llvm::ilist_iterator.97", align 8
  store ptr %0, ptr %3, align 8
  store ptr %1, ptr %4, align 8
  %8 = load ptr, ptr %3, align 8
  store i32 0, ptr %5, align 4
  %9 = load ptr, ptr %4, align 8
  %10 = call ptr @_ZNK4llvm15ilist_node_implINS_12ilist_detail12node_optionsINS_12MachineInstrELb1ELb1EvLb0EvEEE11getIteratorEv(ptr noundef nonnull align 8 dereferenceable(16) %9)
  %11 = getelementptr inbounds nuw %"class.llvm::ilist_iterator.97", ptr %6, i32 0, i32 0
  store ptr %10, ptr %11, align 8
  %12 = load ptr, ptr %4, align 8
  %13 = call noundef ptr @_ZNK4llvm12MachineInstr9getParentEv(ptr noundef nonnull align 8 dereferenceable(70) %12)
  %14 = call ptr @_ZNK4llvm17MachineBasicBlock9instr_endEv(ptr noundef nonnull align 8 dereferenceable(288) %13)
  %15 = getelementptr inbounds nuw %"class.llvm::ilist_iterator.97", ptr %7, i32 0, i32 0
  store ptr %14, ptr %15, align 8
  br label %16

16:                                               ; preds = %24, %2
  %17 = call noundef nonnull align 8 dereferenceable(8) ptr @_ZN4llvm14ilist_iteratorINS_12ilist_detail12node_optionsINS_12MachineInstrELb1ELb1EvLb0EvEELb0ELb1EEppEv(ptr noundef nonnull align 8 dereferenceable(8) %6)
  %18 = call noundef zeroext i1 @_ZN4llvmneERKNS_14ilist_iteratorINS_12ilist_detail12node_optionsINS_12MachineInstrELb1ELb1EvLb0EvEELb0ELb1EEES7_(ptr noundef nonnull align 8 dereferenceable(8) %17, ptr noundef nonnull align 8 dereferenceable(8) %7)
  br i1 %18, label %19, label %22

19:                                               ; preds = %16
  %20 = call noundef ptr @_ZNK4llvm14ilist_iteratorINS_12ilist_detail12node_optionsINS_12MachineInstrELb1ELb1EvLb0EvEELb0ELb1EEptEv(ptr noundef nonnull align 8 dereferenceable(8) %6)
  %21 = call noundef zeroext i1 @_ZNK4llvm12MachineInstr14isInsideBundleEv(ptr noundef nonnull align 8 dereferenceable(70) %20)
  br label %22

22:                                               ; preds = %19, %16
  %23 = phi i1 [ false, %16 ], [ %21, %19 ]
  br i1 %23, label %24, label %32

24:                                               ; preds = %22
  %25 = call noundef nonnull align 8 dereferenceable(70) ptr @_ZNK4llvm14ilist_iteratorINS_12ilist_detail12node_optionsINS_12MachineInstrELb1ELb1EvLb0EvEELb0ELb1EEdeEv(ptr noundef nonnull align 8 dereferenceable(8) %6)
  %26 = load ptr, ptr %8, align 8
  %27 = getelementptr inbounds ptr, ptr %26, i64 19
  %28 = load ptr, ptr %27, align 8
  %29 = call noundef i32 %28(ptr noundef nonnull align 8 dereferenceable(88) %8, ptr noundef nonnull align 8 dereferenceable(70) %25)
  %30 = load i32, ptr %5, align 4
  %31 = add i32 %30, %29
  store i32 %31, ptr %5, align 4
  br label %16, !llvm.loop !10

32:                                               ; preds = %22
  %33 = load i32, ptr %5, align 4
  ret i32 %33
}