; Function Attrs: mustprogress nounwind uwtable
define dso_local noundef i32 @_ZNK4llvm14RISCVInstrInfo19getInstBundleLengthERKNS_12MachineInstrE(ptr noundef nonnull align 8 dereferenceable(88) %0, ptr nocapture noundef nonnull readonly align 8 dereferenceable(70) %1) local_unnamed_addr #2 align 2 {
  %3 = getelementptr inbounds nuw i8, ptr %1, i64 24
  %4 = load ptr, ptr %3, align 8
  %5 = getelementptr inbounds i8, ptr %4, i64 48
  %6 = getelementptr inbounds nuw i8, ptr %1, i64 8
  %7 = load ptr, ptr %6, align 8
  %.not9 = icmp eq ptr %7, %5
  br i1 %.not9, label %.critedge, label %.lr.ph

.lr.ph:                                           ; preds = %2, %12
  %8 = phi ptr [ %19, %12 ], [ %7, %2 ]
  %.010 = phi i32 [ %17, %12 ], [ 0, %2 ]
  %9 = getelementptr inbounds nuw i8, ptr %8, i64 44
  %10 = load i32, ptr %9, align 4
  %11 = and i32 %10, 4
  %.not8 = icmp eq i32 %11, 0
  br i1 %.not8, label %.critedge, label %12

12:                                               ; preds = %.lr.ph
  %13 = load ptr, ptr %0, align 8
  %14 = getelementptr inbounds i8, ptr %13, i64 152
  %15 = load ptr, ptr %14, align 8
  %16 = tail call noundef i32 %15(ptr noundef nonnull align 8 dereferenceable(88) %0, ptr noundef nonnull align 8 dereferenceable(70) %8) #25
  %17 = add i32 %16, %.010
  %18 = getelementptr inbounds nuw i8, ptr %8, i64 8
  %19 = load ptr, ptr %18, align 8
  %.not = icmp eq ptr %19, %5
  br i1 %.not, label %.critedge, label %.lr.ph, !llvm.loop !175

.critedge:                                        ; preds = %.lr.ph, %12, %2
  %.0.lcssa = phi i32 [ 0, %2 ], [ %17, %12 ], [ %.010, %.lr.ph ]
  ret i32 %.0.lcssa
}